target datalayout = "e-m:e-p270:32:32-p271:32:32-p272:64:64-i64:64-i128:128-f80:128-n8:16:32:64-S128"
target triple = "x86_64-pc-linux-gnu"

%struct.Coverage = type { ptr, %"class.std::vector" }
%"class.std::vector" = type { %"struct.std::_Vector_base" }
%"struct.std::_Vector_base" = type { %"struct.std::_Vector_base<int, std::allocator<int>>::_Vector_impl" }
%"struct.std::_Vector_base<int, std::allocator<int>>::_Vector_impl" = type { %"struct.std::_Vector_base<int, std::allocator<int>>::_Vector_impl_data" }
%"struct.std::_Vector_base<int, std::allocator<int>>::_Vector_impl_data" = type { ptr, ptr, ptr }
%"class.__gnu_cxx::__normal_iterator" = type { ptr }
%struct.lua_Debug = type { ptr, ptr, ptr, ptr, i32, i32, i8, i8, i8, ptr, [256 x i8] }

@gCoverage = dso_local global %struct.Coverage zeroinitializer, align 8
@.str = private unnamed_addr constant [2 x i8] c"w\00", align 1
@stderr = external global ptr, align 8
@.str.1 = private unnamed_addr constant [27 x i8] c"Error opening coverage %s\0A\00", align 1
@.str.2 = private unnamed_addr constant [5 x i8] c"TN:\0A\00", align 1
@.str.3 = private unnamed_addr constant [2 x i8] c"s\00", align 1
@.str.4 = private unnamed_addr constant [7 x i8] c"SF:%s\0A\00", align 1
@.str.5 = private unnamed_addr constant [15 x i8] c"end_of_record\0A\00", align 1
@.str.6 = private unnamed_addr constant [44 x i8] c"Coverage dump written to %s (%d functions)\0A\00", align 1

; Function Attrs: mustprogress nounwind uwtable
define linkonce_odr dso_local noundef nonnull align 8 dereferenceable(8) ptr @_ZNK9__gnu_cxx17__normal_iteratorIPiSt6vectorIiSaIiEEE4baseEv(ptr noundef nonnull align 8 dereferenceable(8) %0) #5 comdat align 2 {
  %2 = alloca ptr, align 8
  store ptr %0, ptr %2, align 8, !tbaa !31
  %3 = load ptr, ptr %2, align 8
  %4 = getelementptr inbounds nuw %"class.__gnu_cxx::__normal_iterator", ptr %3, i32 0, i32 0
  ret ptr %4
}

; Function Attrs: mustprogress nounwind uwtable
define linkonce_odr dso_local void @_ZN9__gnu_cxx17__normal_iteratorIPiSt6vectorIiSaIiEEEC2ERKS1_(ptr noundef nonnull align 8 dereferenceable(8) %0, ptr noundef nonnull align 8 dereferenceable(8) %1) unnamed_addr #5 comdat align 2 {
  %3 = alloca ptr, align 8
  %4 = alloca ptr, align 8
  store ptr %0, ptr %3, align 8, !tbaa !31
  store ptr %1, ptr %4, align 8, !tbaa !81
  %5 = load ptr, ptr %3, align 8
  %6 = getelementptr inbounds nuw %"class.__gnu_cxx::__normal_iterator", ptr %5, i32 0, i32 0
  %7 = load ptr, ptr %4, align 8, !tbaa !81
  %8 = load ptr, ptr %7, align 8, !tbaa !22
  store ptr %8, ptr %6, align 8, !tbaa !33
  ret void
}

; Function Attrs: mustprogress nounwind uwtable
define linkonce_odr dso_local noundef i64 @_ZNKSt6vectorIiSaIiEE4sizeEv(ptr noundef nonnull align 8 dereferenceable(24) %0) #5 comdat align 2 {
  %2 = alloca ptr, align 8
  store ptr %0, ptr %2, align 8, !tbaa !20
  %3 = load ptr, ptr %2, align 8
  %4 = getelementptr inbounds nuw %"struct.std::_Vector_base", ptr %3, i32 0, i32 0
  %5 = getelementptr inbounds nuw %"struct.std::_Vector_base<int, std::allocator<int>>::_Vector_impl_data", ptr %4, i32 0, i32 1
  %6 = load ptr, ptr %5, align 8, !tbaa !23
  %7 = getelementptr inbounds nuw %"struct.std::_Vector_base", ptr %3, i32 0, i32 0
  %8 = getelementptr inbounds nuw %"struct.std::_Vector_base<int, std::allocator<int>>::_Vector_impl_data", ptr %7, i32 0, i32 0
  %9 = load ptr, ptr %8, align 8, !tbaa !41
  %10 = ptrtoint ptr %6 to i64
  %11 = ptrtoint ptr %9 to i64
  %12 = sub i64 %10, %11
  %13 = sdiv exact i64 %12, 4
  ret i64 %13
}

; Function Attrs: mustprogress nounwind uwtable
define linkonce_odr dso_local noundef nonnull align 8 dereferenceable(8) ptr @_ZN9__gnu_cxx17__normal_iteratorIPiSt6vectorIiSaIiEEEppEv(ptr noundef nonnull align 8 dereferenceable(8) %0) #5 comdat align 2 {
  %2 = alloca ptr, align 8
  store ptr %0, ptr %2, align 8, !tbaa !31
  %3 = load ptr, ptr %2, align 8
  %4 = getelementptr inbounds nuw %"class.__gnu_cxx::__normal_iterator", ptr %3, i32 0, i32 0
  %5 = load ptr, ptr %4, align 8, !tbaa !33
  %6 = getelementptr inbounds nuw i32, ptr %5, i32 1
  store ptr %6, ptr %4, align 8, !tbaa !33
  ret ptr %3
}

; Function Attrs: mustprogress nounwind uwtable
define linkonce_odr dso_local noundef nonnull align 4 dereferenceable(4) ptr @_ZNK9__gnu_cxx17__normal_iteratorIPiSt6vectorIiSaIiEEEdeEv(ptr noundef nonnull align 8 dereferenceable(8) %0) #5 comdat align 2 {
  %2 = alloca ptr, align 8
  store ptr %0, ptr %2, align 8, !tbaa !31
  %3 = load ptr, ptr %2, align 8
  %4 = getelementptr inbounds nuw %"class.__gnu_cxx::__normal_iterator", ptr %3, i32 0, i32 0
  %5 = load ptr, ptr %4, align 8, !tbaa !33
  ret ptr %5
}

; Function Attrs: inlinehint mustprogress nounwind uwtable
define linkonce_odr dso_local noundef zeroext i1 @_ZN9__gnu_cxxneIPiSt6vectorIiSaIiEEEEbRKNS_17__normal_iteratorIT_T0_EESA_(ptr noundef nonnull align 8 dereferenceable(8) %0, ptr noundef nonnull align 8 dereferenceable(8) %1) #1 comdat {
  %3 = alloca ptr, align 8
  %4 = alloca ptr, align 8
  store ptr %0, ptr %3, align 8, !tbaa !31
  store ptr %1, ptr %4, align 8, !tbaa !31
  %5 = load ptr, ptr %3, align 8, !tbaa !31
  %6 = call noundef nonnull align 8 dereferenceable(8) ptr @_ZNK9__gnu_cxx17__normal_iteratorIPiSt6vectorIiSaIiEEE4baseEv(ptr noundef nonnull align 8 dereferenceable(8) %5) #2
  %7 = load ptr, ptr %6, align 8, !tbaa !22
  %8 = load ptr, ptr %4, align 8, !tbaa !31
  %9 = call noundef nonnull align 8 dereferenceable(8) ptr @_ZNK9__gnu_cxx17__normal_iteratorIPiSt6vectorIiSaIiEEE4baseEv(ptr noundef nonnull align 8 dereferenceable(8) %8) #2
  %10 = load ptr, ptr %9, align 8, !tbaa !22
  %11 = icmp ne ptr %7, %10
  ret i1 %11
}

; Function Attrs: mustprogress nounwind uwtable
define linkonce_odr dso_local ptr @_ZNSt6vectorIiSaIiEE3endEv(ptr noundef nonnull align 8 dereferenceable(24) %0) #5 comdat align 2 {
  %2 = alloca %"class.__gnu_cxx::__normal_iterator", align 8
  %3 = alloca ptr, align 8
  store ptr %0, ptr %3, align 8, !tbaa !20
  %4 = load ptr, ptr %3, align 8
  %5 = getelementptr inbounds nuw %"struct.std::_Vector_base", ptr %4, i32 0, i32 0
  %6 = getelementptr inbounds nuw %"struct.std::_Vector_base<int, std::allocator<int>>::_Vector_impl_data", ptr %5, i32 0, i32 1
  call void @_ZN9__gnu_cxx17__normal_iteratorIPiSt6vectorIiSaIiEEEC2ERKS1_(ptr noundef nonnull align 8 dereferenceable(8) %2, ptr noundef nonnull align 8 dereferenceable(8) %6) #2
  %7 = getelementptr inbounds nuw %"class.__gnu_cxx::__normal_iterator", ptr %2, i32 0, i32 0
  %8 = load ptr, ptr %7, align 8
  ret ptr %8
}

; Function Attrs: mustprogress nounwind uwtable
define linkonce_odr dso_local ptr @_ZNSt6vectorIiSaIiEE5beginEv(ptr noundef nonnull align 8 dereferenceable(24) %0) #5 comdat align 2 {
  %2 = alloca %"class.__gnu_cxx::__normal_iterator", align 8
  %3 = alloca ptr, align 8
  store ptr %0, ptr %3, align 8, !tbaa !20
  %4 = load ptr, ptr %3, align 8
  %5 = getelementptr inbounds nuw %"struct.std::_Vector_base", ptr %4, i32 0, i32 0
  %6 = getelementptr inbounds nuw %"struct.std::_Vector_base<int, std::allocator<int>>::_Vector_impl_data", ptr %5, i32 0, i32 0
  call void @_ZN9__gnu_cxx17__normal_iteratorIPiSt6vectorIiSaIiEEEC2ERKS1_(ptr noundef nonnull align 8 dereferenceable(8) %2, ptr noundef nonnull align 8 dereferenceable(8) %6) #2
  %7 = getelementptr inbounds nuw %"class.__gnu_cxx::__normal_iterator", ptr %2, i32 0, i32 0
  %8 = load ptr, ptr %7, align 8
  ret ptr %8
}

; Function Attrs: mustprogress uwtable
define dso_local void @_Z12coverageDumpPKc(ptr noundef %0) #3 {
  %2 = alloca ptr, align 8
  %3 = alloca ptr, align 8
  %4 = alloca ptr, align 8
  %5 = alloca i32, align 4
  %6 = alloca ptr, align 8
  %7 = alloca %"class.__gnu_cxx::__normal_iterator", align 8
  %8 = alloca %"class.__gnu_cxx::__normal_iterator", align 8
  %9 = alloca i32, align 4
  %10 = alloca %struct.lua_Debug, align 8
  store ptr %0, ptr %2, align 8, !tbaa !25
  call void @llvm.lifetime.start.p0(i64 8, ptr %3) #2
  %11 = load ptr, ptr @gCoverage, align 8, !tbaa !9
  store ptr %11, ptr %3, align 8, !tbaa !17
  call void @llvm.lifetime.start.p0(i64 8, ptr %4) #2
  %12 = load ptr, ptr %2, align 8, !tbaa !25
  %13 = call noalias ptr @fopen(ptr noundef %12, ptr noundef @.str)
  store ptr %13, ptr %4, align 8, !tbaa !27
  %14 = load ptr, ptr %4, align 8, !tbaa !27
  %15 = icmp ne ptr %14, null
  br i1 %15, label %20, label %16

16:                                               ; preds = %1
  %17 = load ptr, ptr @stderr, align 8, !tbaa !27
  %18 = load ptr, ptr %2, align 8, !tbaa !25
  %19 = call i32 (ptr, ptr, ...) @fprintf(ptr noundef %17, ptr noundef @.str.1, ptr noundef %18) #2
  store i32 1, ptr %5, align 4
  br label %56

20:                                               ; preds = %1
  %21 = load ptr, ptr %4, align 8, !tbaa !27
  %22 = call i32 (ptr, ptr, ...) @fprintf(ptr noundef %21, ptr noundef @.str.2) #2
  call void @llvm.lifetime.start.p0(i64 8, ptr %6) #2
  store ptr getelementptr (i8, ptr @gCoverage, i64 8), ptr %6, align 8, !tbaa !20
  call void @llvm.lifetime.start.p0(i64 8, ptr %7) #2
  %23 = call ptr @_ZNSt6vectorIiSaIiEE5beginEv(ptr noundef nonnull align 8 dereferenceable(24) getelementptr (i8, ptr @gCoverage, i64 8)) #2
  %24 = getelementptr inbounds nuw %"class.__gnu_cxx::__normal_iterator", ptr %7, i32 0, i32 0
  store ptr %23, ptr %24, align 8
  call void @llvm.lifetime.start.p0(i64 8, ptr %8) #2
  %25 = call ptr @_ZNSt6vectorIiSaIiEE3endEv(ptr noundef nonnull align 8 dereferenceable(24) getelementptr (i8, ptr @gCoverage, i64 8)) #2
  %26 = getelementptr inbounds nuw %"class.__gnu_cxx::__normal_iterator", ptr %8, i32 0, i32 0
  store ptr %25, ptr %26, align 8
  br label %27

27:                                               ; preds = %47, %20
  %28 = call noundef zeroext i1 @_ZN9__gnu_cxxneIPiSt6vectorIiSaIiEEEEbRKNS_17__normal_iteratorIT_T0_EESA_(ptr noundef nonnull align 8 dereferenceable(8) %7, ptr noundef nonnull align 8 dereferenceable(8) %8) #2
  br i1 %28, label %30, label %29

29:                                               ; preds = %27
  store i32 2, ptr %5, align 4
  call void @llvm.lifetime.end.p0(i64 8, ptr %8) #2
  call void @llvm.lifetime.end.p0(i64 8, ptr %7) #2
  call void @llvm.lifetime.end.p0(i64 8, ptr %6) #2
  br label %49

30:                                               ; preds = %27
  call void @llvm.lifetime.start.p0(i64 4, ptr %9) #2
  %31 = call noundef nonnull align 4 dereferenceable(4) ptr @_ZNK9__gnu_cxx17__normal_iteratorIPiSt6vectorIiSaIiEEEdeEv(ptr noundef nonnull align 8 dereferenceable(8) %7) #2
  %32 = load i32, ptr %31, align 4, !tbaa !18
  store i32 %32, ptr %9, align 4, !tbaa !18
  %33 = load ptr, ptr %3, align 8, !tbaa !17
  %34 = load i32, ptr %9, align 4, !tbaa !18
  %35 = call noundef i32 @_Z11lua_rawgetiP9lua_Stateii(ptr noundef %33, i32 noundef -10000, i32 noundef %34)
  call void @llvm.lifetime.start.p0(i64 312, ptr %10) #2
  call void @llvm.memset.p0.i64(ptr align 8 %10, i8 0, i64 312, i1 false)
  %36 = load ptr, ptr %3, align 8, !tbaa !17
  %37 = call noundef i32 @_Z11lua_getinfoP9lua_StateiPKcP9lua_Debug(ptr noundef %36, i32 noundef -1, ptr noundef @.str.3, ptr noundef %10)
  %38 = load ptr, ptr %4, align 8, !tbaa !27
  %39 = getelementptr inbounds nuw %struct.lua_Debug, ptr %10, i32 0, i32 3
  %40 = load ptr, ptr %39, align 8, !tbaa !29
  %41 = call i32 (ptr, ptr, ...) @fprintf(ptr noundef %38, ptr noundef @.str.4, ptr noundef %40) #2
  %42 = load ptr, ptr %3, align 8, !tbaa !17
  %43 = load ptr, ptr %4, align 8, !tbaa !27
  call void @_Z15lua_getcoverageP9lua_StateiPvPFvS1_PKciiPKimE(ptr noundef %42, i32 noundef -1, ptr noundef %43, ptr noundef @_ZL16coverageCallbackPvPKciiPKim)
  %44 = load ptr, ptr %4, align 8, !tbaa !27
  %45 = call i32 (ptr, ptr, ...) @fprintf(ptr noundef %44, ptr noundef @.str.5) #2
  %46 = load ptr, ptr %3, align 8, !tbaa !17
  call void @_Z10lua_settopP9lua_Statei(ptr noundef %46, i32 noundef -2)
  call void @llvm.lifetime.end.p0(i64 312, ptr %10) #2
  call void @llvm.lifetime.end.p0(i64 4, ptr %9) #2
  br label %47

47:                                               ; preds = %30
  %48 = call noundef nonnull align 8 dereferenceable(8) ptr @_ZN9__gnu_cxx17__normal_iteratorIPiSt6vectorIiSaIiEEEppEv(ptr noundef nonnull align 8 dereferenceable(8) %7) #2
  br label %27

49:                                               ; preds = %29
  %50 = load ptr, ptr %4, align 8, !tbaa !27
  %51 = call i32 @fclose(ptr noundef %50)
  %52 = load ptr, ptr %2, align 8, !tbaa !25
  %53 = call noundef i64 @_ZNKSt6vectorIiSaIiEE4sizeEv(ptr noundef nonnull align 8 dereferenceable(24) getelementptr inbounds nuw (%struct.Coverage, ptr @gCoverage, i32 0, i32 1)) #2
  %54 = trunc i64 %53 to i32
  %55 = call i32 (ptr, ...) @printf(ptr noundef @.str.6, ptr noundef %52, i32 noundef %54)
  store i32 0, ptr %5, align 4
  br label %56

56:                                               ; preds = %49, %16
  call void @llvm.lifetime.end.p0(i64 8, ptr %4) #2
  call void @llvm.lifetime.end.p0(i64 8, ptr %3) #2
  %57 = load i32, ptr %5, align 4
  switch i32 %57, label %59 [
    i32 0, label %58
    i32 1, label %58
  ]

58:                                               ; preds = %56, %56
  ret void

59:                                               ; preds = %56
  unreachable
}