; Function Attrs: mustprogress uwtable
define dso_local void @_Z12coverageDumpPKc(ptr noundef %0) local_unnamed_addr #2 {
  %2 = alloca %struct.lua_Debug, align 8
  %3 = load ptr, ptr @gCoverage, align 8, !tbaa !11
  %4 = tail call noalias ptr @fopen(ptr noundef %0, ptr noundef nonnull @.str)
  %.not = icmp eq ptr %4, null
  br i1 %.not, label %5, label %8

5:                                                ; preds = %1
  %6 = load ptr, ptr @stderr, align 8, !tbaa !20
  %7 = tail call i32 (ptr, ptr, ...) @fprintf(ptr noundef %6, ptr noundef nonnull @.str.1, ptr noundef %0) #22
  br label %30

8:                                                ; preds = %1
  %9 = tail call i64 @fwrite(ptr nonnull @.str.2, i64 4, i64 1, ptr nonnull %4)
  %10 = load ptr, ptr getelementptr inbounds nuw (i8, ptr @gCoverage, i64 8), align 8, !tbaa !22
  %11 = load ptr, ptr getelementptr inbounds nuw (i8, ptr @gCoverage, i64 16), align 8, !tbaa !22
  %.not1617 = icmp eq ptr %10, %11
  br i1 %.not1617, label %._crit_edge, label %.lr.ph

.lr.ph:                                           ; preds = %8
  %12 = getelementptr inbounds nuw i8, ptr %2, i64 24
  br label %22

._crit_edge:                                      ; preds = %22, %8
  %13 = call i32 @fclose(ptr noundef nonnull %4)
  %14 = load ptr, ptr getelementptr inbounds nuw (i8, ptr @gCoverage, i64 16), align 8, !tbaa !17
  %15 = load ptr, ptr getelementptr inbounds nuw (i8, ptr @gCoverage, i64 8), align 8, !tbaa !4
  %16 = ptrtoint ptr %14 to i64
  %17 = ptrtoint ptr %15 to i64
  %18 = sub i64 %16, %17
  %19 = lshr exact i64 %18, 2
  %20 = trunc i64 %19 to i32
  %21 = call i32 (ptr, ...) @printf(ptr noundef nonnull dereferenceable(1) @.str.6, ptr noundef %0, i32 noundef %20)
  br label %30

22:                                               ; preds = %.lr.ph, %22
  %.sroa.013.018 = phi ptr [ %10, %.lr.ph ], [ %29, %22 ]
  %23 = load i32, ptr %.sroa.013.018, align 4, !tbaa !18
  %24 = call noundef i32 @_Z11lua_rawgetiP9lua_Stateii(ptr noundef %3, i32 noundef -10000, i32 noundef %23)
  call void @llvm.lifetime.start.p0(i64 312, ptr nonnull %2) #23
  call void @llvm.memset.p0.i64(ptr noundef nonnull align 8 dereferenceable(312) %2, i8 0, i64 312, i1 false)
  %25 = call noundef i32 @_Z11lua_getinfoP9lua_StateiPKcP9lua_Debug(ptr noundef %3, i32 noundef -1, ptr noundef nonnull @.str.3, ptr noundef nonnull %2)
  %26 = load ptr, ptr %12, align 8, !tbaa !23
  %27 = call i32 (ptr, ptr, ...) @fprintf(ptr noundef nonnull %4, ptr noundef nonnull @.str.4, ptr noundef %26) #23
  call void @_Z15lua_getcoverageP9lua_StateiPvPFvS1_PKciiPKimE(ptr noundef %3, i32 noundef -1, ptr noundef nonnull %4, ptr noundef nonnull @_ZL16coverageCallbackPvPKciiPKim)
  %28 = call i64 @fwrite(ptr nonnull @.str.5, i64 14, i64 1, ptr nonnull %4)
  call void @_Z10lua_settopP9lua_Statei(ptr noundef %3, i32 noundef -2)
  call void @llvm.lifetime.end.p0(i64 312, ptr nonnull %2) #23
  %29 = getelementptr inbounds nuw i8, ptr %.sroa.013.018, i64 4
  %.not16 = icmp eq ptr %29, %11
  br i1 %.not16, label %._crit_edge, label %22

30:                                               ; preds = %._crit_edge, %5
  ret void
}